target datalayout = "e-m:e-p270:32:32-p271:32:32-p272:64:64-i64:64-i128:128-f80:128-n8:16:32:64-S128"
target triple = "x86_64-pc-linux-gnu"

; Function Attrs: nounwind uwtable
define internal void @ff_put_dirac_pixels8_bilinear_c(ptr noundef %0, ptr noundef %1, i32 noundef %2, i32 noundef %3) #1 {
  %5 = alloca ptr, align 8
  %6 = alloca ptr, align 8
  %7 = alloca i32, align 4
  %8 = alloca i32, align 4
  %9 = alloca i32, align 4
  %10 = alloca ptr, align 8
  %11 = alloca ptr, align 8
  %12 = alloca ptr, align 8
  %13 = alloca ptr, align 8
  %14 = alloca ptr, align 8
  store ptr %0, ptr %5, align 8, !tbaa !11
  store ptr %1, ptr %6, align 8, !tbaa !59
  store i32 %2, ptr %7, align 4, !tbaa !13
  store i32 %3, ptr %8, align 4, !tbaa !13
  call void @llvm.lifetime.start.p0(i64 4, ptr %9) #5
  call void @llvm.lifetime.start.p0(i64 8, ptr %10) #5
  %15 = load ptr, ptr %6, align 8, !tbaa !59
  %16 = getelementptr inbounds ptr, ptr %15, i64 0
  %17 = load ptr, ptr %16, align 8, !tbaa !11
  store ptr %17, ptr %10, align 8, !tbaa !11
  call void @llvm.lifetime.start.p0(i64 8, ptr %11) #5
  %18 = load ptr, ptr %6, align 8, !tbaa !59
  %19 = getelementptr inbounds ptr, ptr %18, i64 1
  %20 = load ptr, ptr %19, align 8, !tbaa !11
  store ptr %20, ptr %11, align 8, !tbaa !11
  call void @llvm.lifetime.start.p0(i64 8, ptr %12) #5
  %21 = load ptr, ptr %6, align 8, !tbaa !59
  %22 = getelementptr inbounds ptr, ptr %21, i64 2
  %23 = load ptr, ptr %22, align 8, !tbaa !11
  store ptr %23, ptr %12, align 8, !tbaa !11
  call void @llvm.lifetime.start.p0(i64 8, ptr %13) #5
  %24 = load ptr, ptr %6, align 8, !tbaa !59
  %25 = getelementptr inbounds ptr, ptr %24, i64 3
  %26 = load ptr, ptr %25, align 8, !tbaa !11
  store ptr %26, ptr %13, align 8, !tbaa !11
  call void @llvm.lifetime.start.p0(i64 8, ptr %14) #5
  %27 = load ptr, ptr %6, align 8, !tbaa !59
  %28 = getelementptr inbounds ptr, ptr %27, i64 4
  %29 = load ptr, ptr %28, align 8, !tbaa !11
  store ptr %29, ptr %14, align 8, !tbaa !11
  br label %30

30:                                               ; preds = %96, %4
  %31 = load i32, ptr %8, align 4, !tbaa !13
  %32 = add nsw i32 %31, -1
  store i32 %32, ptr %8, align 4, !tbaa !13
  %33 = icmp ne i32 %31, 0
  br i1 %33, label %34, label %117

34:                                               ; preds = %30
  store i32 0, ptr %9, align 4, !tbaa !13
  br label %35

35:                                               ; preds = %93, %34
  %36 = load i32, ptr %9, align 4, !tbaa !13
  %37 = icmp slt i32 %36, 8
  br i1 %37, label %38, label %96

38:                                               ; preds = %35
  %39 = load ptr, ptr %10, align 8, !tbaa !11
  %40 = load i32, ptr %9, align 4, !tbaa !13
  %41 = sext i32 %40 to i64
  %42 = getelementptr inbounds i8, ptr %39, i64 %41
  %43 = load i8, ptr %42, align 1, !tbaa !15
  %44 = zext i8 %43 to i32
  %45 = load ptr, ptr %14, align 8, !tbaa !11
  %46 = getelementptr inbounds i8, ptr %45, i64 0
  %47 = load i8, ptr %46, align 1, !tbaa !15
  %48 = zext i8 %47 to i32
  %49 = mul nsw i32 %44, %48
  %50 = load ptr, ptr %11, align 8, !tbaa !11
  %51 = load i32, ptr %9, align 4, !tbaa !13
  %52 = sext i32 %51 to i64
  %53 = getelementptr inbounds i8, ptr %50, i64 %52
  %54 = load i8, ptr %53, align 1, !tbaa !15
  %55 = zext i8 %54 to i32
  %56 = load ptr, ptr %14, align 8, !tbaa !11
  %57 = getelementptr inbounds i8, ptr %56, i64 1
  %58 = load i8, ptr %57, align 1, !tbaa !15
  %59 = zext i8 %58 to i32
  %60 = mul nsw i32 %55, %59
  %61 = add nsw i32 %49, %60
  %62 = load ptr, ptr %12, align 8, !tbaa !11
  %63 = load i32, ptr %9, align 4, !tbaa !13
  %64 = sext i32 %63 to i64
  %65 = getelementptr inbounds i8, ptr %62, i64 %64
  %66 = load i8, ptr %65, align 1, !tbaa !15
  %67 = zext i8 %66 to i32
  %68 = load ptr, ptr %14, align 8, !tbaa !11
  %69 = getelementptr inbounds i8, ptr %68, i64 2
  %70 = load i8, ptr %69, align 1, !tbaa !15
  %71 = zext i8 %70 to i32
  %72 = mul nsw i32 %67, %71
  %73 = add nsw i32 %61, %72
  %74 = load ptr, ptr %13, align 8, !tbaa !11
  %75 = load i32, ptr %9, align 4, !tbaa !13
  %76 = sext i32 %75 to i64
  %77 = getelementptr inbounds i8, ptr %74, i64 %76
  %78 = load i8, ptr %77, align 1, !tbaa !15
  %79 = zext i8 %78 to i32
  %80 = load ptr, ptr %14, align 8, !tbaa !11
  %81 = getelementptr inbounds i8, ptr %80, i64 3
  %82 = load i8, ptr %81, align 1, !tbaa !15
  %83 = zext i8 %82 to i32
  %84 = mul nsw i32 %79, %83
  %85 = add nsw i32 %73, %84
  %86 = add nsw i32 %85, 8
  %87 = ashr i32 %86, 4
  %88 = trunc i32 %87 to i8
  %89 = load ptr, ptr %5, align 8, !tbaa !11
  %90 = load i32, ptr %9, align 4, !tbaa !13
  %91 = sext i32 %90 to i64
  %92 = getelementptr inbounds i8, ptr %89, i64 %91
  store i8 %88, ptr %92, align 1, !tbaa !15
  br label %93

93:                                               ; preds = %38
  %94 = load i32, ptr %9, align 4, !tbaa !13
  %95 = add nsw i32 %94, 1
  store i32 %95, ptr %9, align 4, !tbaa !13
  br label %35, !llvm.loop !62

96:                                               ; preds = %35
  %97 = load i32, ptr %7, align 4, !tbaa !13
  %98 = load ptr, ptr %5, align 8, !tbaa !11
  %99 = sext i32 %97 to i64
  %100 = getelementptr inbounds i8, ptr %98, i64 %99
  store ptr %100, ptr %5, align 8, !tbaa !11
  %101 = load i32, ptr %7, align 4, !tbaa !13
  %102 = load ptr, ptr %10, align 8, !tbaa !11
  %103 = sext i32 %101 to i64
  %104 = getelementptr inbounds i8, ptr %102, i64 %103
  store ptr %104, ptr %10, align 8, !tbaa !11
  %105 = load i32, ptr %7, align 4, !tbaa !13
  %106 = load ptr, ptr %11, align 8, !tbaa !11
  %107 = sext i32 %105 to i64
  %108 = getelementptr inbounds i8, ptr %106, i64 %107
  store ptr %108, ptr %11, align 8, !tbaa !11
  %109 = load i32, ptr %7, align 4, !tbaa !13
  %110 = load ptr, ptr %12, align 8, !tbaa !11
  %111 = sext i32 %109 to i64
  %112 = getelementptr inbounds i8, ptr %110, i64 %111
  store ptr %112, ptr %12, align 8, !tbaa !11
  %113 = load i32, ptr %7, align 4, !tbaa !13
  %114 = load ptr, ptr %13, align 8, !tbaa !11
  %115 = sext i32 %113 to i64
  %116 = getelementptr inbounds i8, ptr %114, i64 %115
  store ptr %116, ptr %13, align 8, !tbaa !11
  br label %30, !llvm.loop !63

117:                                              ; preds = %30
  call void @llvm.lifetime.end.p0(i64 8, ptr %14) #5
  call void @llvm.lifetime.end.p0(i64 8, ptr %13) #5
  call void @llvm.lifetime.end.p0(i64 8, ptr %12) #5
  call void @llvm.lifetime.end.p0(i64 8, ptr %11) #5
  call void @llvm.lifetime.end.p0(i64 8, ptr %10) #5
  call void @llvm.lifetime.end.p0(i64 4, ptr %9) #5
  ret void
}